; Function Attrs: mustprogress uwtable
define void @_ZN5arrow5Table17FromRecordBatchesERKSt6vectorISt10shared_ptrINS_11RecordBatchEESaIS4_EE(ptr dead_on_unwind noalias writable sret(%"class.arrow::Result") align 8 %0, ptr noundef nonnull readonly align 8 captures(none) dereferenceable(24) %1) local_unnamed_addr #2 align 2 personality ptr @__gxx_personality_v0 {
  %3 = alloca %"class.arrow::Status", align 8
  %4 = alloca %"class.std::shared_ptr", align 8
  %5 = getelementptr inbounds nuw i8, ptr %1, i64 8
  %6 = load ptr, ptr %5, align 8, !tbaa !135
  %7 = load ptr, ptr %1, align 8, !tbaa !138
  %8 = icmp eq ptr %6, %7
  br i1 %8, label %9, label %16

9:                                                ; preds = %2
  call void @llvm.lifetime.start.p0(i64 8, ptr nonnull %3) #23
  call void @_ZN5arrow6Status8FromArgsIJRA58_KcEEES0_NS_10StatusCodeEDpOT_(ptr dead_on_unwind nonnull writable sret(%"class.arrow::Status") align 8 %3, i8 noundef signext 4, ptr noundef nonnull align 1 dereferenceable(58) @.str.3)
  call void @_ZN5arrow6ResultISt10shared_ptrINS_5TableEEEC2ERKNS_6StatusE(ptr noundef nonnull align 8 dereferenceable(24) %0, ptr noundef nonnull align 8 dereferenceable(8) %3) #23
  %10 = load ptr, ptr %3, align 8, !tbaa !102
  %.not.i = icmp eq ptr %10, null
  br i1 %.not.i, label %_ZN5arrow6StatusD2Ev.exit, label %11, !prof !105

11:                                               ; preds = %9
  %12 = getelementptr inbounds nuw i8, ptr %10, i64 1
  %13 = load i8, ptr %12, align 1, !tbaa !113, !range !123, !noundef !124
  %14 = trunc nuw i8 %13 to i1
  br i1 %14, label %_ZN5arrow6StatusD2Ev.exit, label %15

15:                                               ; preds = %11
  call void @_ZN5arrow6Status11DeleteStateEv(ptr noundef nonnull align 8 dereferenceable(8) %3) #23
  br label %_ZN5arrow6StatusD2Ev.exit

_ZN5arrow6StatusD2Ev.exit:                        ; preds = %9, %11, %15
  call void @llvm.lifetime.end.p0(i64 8, ptr nonnull %3) #23
  br label %_ZNSt12__shared_ptrIN5arrow6SchemaELN9__gnu_cxx12_Lock_policyE2EED2Ev.exit

16:                                               ; preds = %2
  %17 = load ptr, ptr %7, align 8, !tbaa !139
  %18 = getelementptr inbounds nuw i8, ptr %17, i64 8
  %19 = load ptr, ptr %18, align 8, !tbaa !34
  store ptr %19, ptr %4, align 8, !tbaa !34
  %20 = getelementptr inbounds nuw i8, ptr %4, i64 8
  %21 = getelementptr inbounds nuw i8, ptr %17, i64 16
  %22 = load ptr, ptr %21, align 8, !tbaa !46
  store ptr %22, ptr %20, align 8, !tbaa !46
  %.not.i.i.i = icmp eq ptr %22, null
  br i1 %.not.i.i.i, label %_ZNSt10shared_ptrIN5arrow6SchemaEEC2ERKS2_.exit, label %23

23:                                               ; preds = %16
  %24 = getelementptr inbounds nuw i8, ptr %22, i64 8
  %25 = load i8, ptr @__libc_single_threaded, align 1, !tbaa !47
  %.not.i.i.i.i = icmp eq i8 %25, 0
  br i1 %.not.i.i.i.i, label %29, label %26

26:                                               ; preds = %23
  %27 = load i32, ptr %24, align 4, !tbaa !48
  %28 = add nsw i32 %27, 1
  store i32 %28, ptr %24, align 4, !tbaa !48
  br label %_ZNSt10shared_ptrIN5arrow6SchemaEEC2ERKS2_.exit

29:                                               ; preds = %23
  %30 = atomicrmw volatile add ptr %24, i32 1 acq_rel, align 4
  br label %_ZNSt10shared_ptrIN5arrow6SchemaEEC2ERKS2_.exit

_ZNSt10shared_ptrIN5arrow6SchemaEEC2ERKS2_.exit:  ; preds = %16, %26, %29
  invoke void @_ZN5arrow5Table17FromRecordBatchesESt10shared_ptrINS_6SchemaEERKSt6vectorIS1_INS_11RecordBatchEESaIS6_EE(ptr dead_on_unwind writable sret(%"class.arrow::Result") align 8 %0, ptr noundef nonnull %4, ptr noundef nonnull align 8 dereferenceable(24) %1)
          to label %31 unwind label %54

31:                                               ; preds = %_ZNSt10shared_ptrIN5arrow6SchemaEEC2ERKS2_.exit
  %32 = load ptr, ptr %20, align 8, !tbaa !46
  %.not.i.i = icmp eq ptr %32, null
  br i1 %.not.i.i, label %_ZNSt12__shared_ptrIN5arrow6SchemaELN9__gnu_cxx12_Lock_policyE2EED2Ev.exit, label %33

33:                                               ; preds = %31
  %34 = getelementptr inbounds nuw i8, ptr %32, i64 8
  %35 = load atomic i64, ptr %34 acquire, align 8
  %36 = icmp eq i64 %35, 4294967297
  %37 = trunc i64 %35 to i32
  br i1 %36, label %38, label %46

38:                                               ; preds = %33
  store i32 0, ptr %34, align 8, !tbaa !53
  %39 = getelementptr inbounds nuw i8, ptr %32, i64 12
  store i32 0, ptr %39, align 4, !tbaa !55
  %40 = load ptr, ptr %32, align 8, !tbaa !32
  %41 = getelementptr inbounds nuw i8, ptr %40, i64 16
  %42 = load ptr, ptr %41, align 8
  tail call void %42(ptr noundef nonnull align 8 dereferenceable(16) %32) #23
  %43 = load ptr, ptr %32, align 8, !tbaa !32
  %44 = getelementptr inbounds nuw i8, ptr %43, i64 24
  %45 = load ptr, ptr %44, align 8
  tail call void %45(ptr noundef nonnull align 8 dereferenceable(16) %32) #23
  br label %_ZNSt12__shared_ptrIN5arrow6SchemaELN9__gnu_cxx12_Lock_policyE2EED2Ev.exit

46:                                               ; preds = %33
  %47 = load i8, ptr @__libc_single_threaded, align 1, !tbaa !47
  %.not.i.i.i4 = icmp eq i8 %47, 0
  br i1 %.not.i.i.i4, label %50, label %48

48:                                               ; preds = %46
  %49 = add nsw i32 %37, -1
  store i32 %49, ptr %34, align 4, !tbaa !48
  br label %_ZN9__gnu_cxx27__exchange_and_add_dispatchEPii.exit.i.i.i

50:                                               ; preds = %46
  %51 = atomicrmw volatile add ptr %34, i32 -1 acq_rel, align 4
  br label %_ZN9__gnu_cxx27__exchange_and_add_dispatchEPii.exit.i.i.i

_ZN9__gnu_cxx27__exchange_and_add_dispatchEPii.exit.i.i.i: ; preds = %50, %48
  %.0.i.i.i.i = phi i32 [ %37, %48 ], [ %51, %50 ]
  %52 = icmp eq i32 %.0.i.i.i.i, 1
  br i1 %52, label %53, label %_ZNSt12__shared_ptrIN5arrow6SchemaELN9__gnu_cxx12_Lock_policyE2EED2Ev.exit, !prof !56

53:                                               ; preds = %_ZN9__gnu_cxx27__exchange_and_add_dispatchEPii.exit.i.i.i
  tail call void @_ZNSt16_Sp_counted_baseILN9__gnu_cxx12_Lock_policyE2EE24_M_release_last_use_coldEv(ptr noundef nonnull align 8 dereferenceable(16) %32) #23
  br label %_ZNSt12__shared_ptrIN5arrow6SchemaELN9__gnu_cxx12_Lock_policyE2EED2Ev.exit

54:                                               ; preds = %_ZNSt10shared_ptrIN5arrow6SchemaEEC2ERKS2_.exit
  %55 = landingpad { ptr, i32 }
          cleanup
  call void @_ZNSt12__shared_ptrIN5arrow6SchemaELN9__gnu_cxx12_Lock_policyE2EED2Ev(ptr noundef nonnull align 8 dereferenceable(16) %4) #23
  resume { ptr, i32 } %55

_ZNSt12__shared_ptrIN5arrow6SchemaELN9__gnu_cxx12_Lock_policyE2EED2Ev.exit: ; preds = %53, %_ZN9__gnu_cxx27__exchange_and_add_dispatchEPii.exit.i.i.i, %38, %31, %_ZN5arrow6StatusD2Ev.exit
  ret void
}